target datalayout = "e-m:e-p270:32:32-p271:32:32-p272:64:64-i64:64-i128:128-f80:128-n8:16:32:64-S128"
target triple = "x86_64-pc-linux-gnu"

%struct._voip_calls_tapinfo = type { ptr, ptr, ptr, ptr, i32, ptr, [1 x ptr], i32, ptr, i32, i32, i32, ptr, ptr, i32, ptr, i32, i8, i8, ptr, i32, i32, i32, i8, i32, ptr, ptr, ptr, i8, i32, i32, i32, i16, i32, i8, i32, i32, i32, i32, i32, i32, i8 }
%struct.sharkd_voip_convs_req = type { ptr, ptr }

; Function Attrs: alwaysinline nounwind
define internal ptr @memset.inline(ptr %0, i32 %1, i64 %2) #3 {
  %4 = alloca ptr, align 8
  %5 = alloca i32, align 4
  %6 = alloca i64, align 8
  store ptr %0, ptr %4, align 8
  store i32 %1, ptr %5, align 4
  store i64 %2, ptr %6, align 8
  %7 = load ptr, ptr %4, align 8
  %8 = load i32, ptr %5, align 4
  %9 = load i64, ptr %6, align 8
  %10 = load ptr, ptr %4, align 8
  %11 = call i64 @llvm.objectsize.i64.p0(ptr %10, i1 false, i1 true, i1 true)
  %12 = call ptr @__memset_chk(ptr noundef %7, i32 noundef %8, i64 noundef %9, i64 noundef %11) #21
  ret ptr %12
}

; Function Attrs: null_pointer_is_valid sspstrong uwtable
define internal void @sharkd_session_free_tap_voip_convs_cb(ptr noundef %0) #0 {
  %2 = alloca ptr, align 8
  %3 = alloca ptr, align 8
  %4 = alloca ptr, align 8
  store ptr %0, ptr %2, align 8
  call void @llvm.lifetime.start.p0(i64 8, ptr %3) #21
  %5 = load ptr, ptr %2, align 8
  store ptr %5, ptr %3, align 8
  call void @llvm.lifetime.start.p0(i64 8, ptr %4) #21
  %6 = load ptr, ptr %3, align 8
  %7 = getelementptr inbounds nuw %struct.sharkd_voip_convs_req, ptr %6, i32 0, i32 0
  %8 = load ptr, ptr %7, align 8
  store ptr %8, ptr %4, align 8
  %9 = load ptr, ptr %4, align 8
  call void @voip_calls_remove_all_tap_listeners(ptr noundef %9)
  %10 = load ptr, ptr %4, align 8
  %11 = getelementptr inbounds nuw %struct._voip_calls_tapinfo, ptr %10, i32 0, i32 5
  %12 = load ptr, ptr %11, align 8
  %13 = icmp ne ptr %12, null
  br i1 %13, label %14, label %18

14:                                               ; preds = %1
  %15 = load ptr, ptr %4, align 8
  %16 = getelementptr inbounds nuw %struct._voip_calls_tapinfo, ptr %15, i32 0, i32 5
  %17 = load ptr, ptr %16, align 8
  call void @g_queue_free(ptr noundef %17)
  br label %18

18:                                               ; preds = %14, %1
  %19 = load ptr, ptr %4, align 8
  %20 = getelementptr inbounds nuw %struct._voip_calls_tapinfo, ptr %19, i32 0, i32 12
  %21 = load ptr, ptr %20, align 8
  %22 = icmp ne ptr %21, null
  br i1 %22, label %23, label %27

23:                                               ; preds = %18
  %24 = load ptr, ptr %4, align 8
  %25 = getelementptr inbounds nuw %struct._voip_calls_tapinfo, ptr %24, i32 0, i32 12
  %26 = load ptr, ptr %25, align 8
  call void @sequence_analysis_info_free(ptr noundef %26)
  br label %27

27:                                               ; preds = %23, %18
  %28 = load ptr, ptr %4, align 8
  %29 = call ptr @memset.inline(ptr noundef %28, i32 noundef 0, i64 noundef 240) #21
  %30 = load ptr, ptr %3, align 8
  call void @g_free(ptr noundef %30)
  call void @llvm.lifetime.end.p0(i64 8, ptr %4) #21
  call void @llvm.lifetime.end.p0(i64 8, ptr %3) #21
  ret void
}