; Function Attrs: null_pointer_is_valid sspstrong uwtable
define internal void @sharkd_session_free_tap_voip_convs_cb(ptr noundef %0) #0 {
  %2 = load ptr, ptr %0, align 8
  tail call void @voip_calls_remove_all_tap_listeners(ptr noundef %2)
  %3 = getelementptr inbounds nuw i8, ptr %2, i64 40
  %4 = load ptr, ptr %3, align 8
  %.not = icmp eq ptr %4, null
  br i1 %.not, label %6, label %5

5:                                                ; preds = %1
  tail call void @g_queue_free(ptr noundef nonnull %4)
  br label %6

6:                                                ; preds = %5, %1
  %7 = getelementptr inbounds nuw i8, ptr %2, i64 88
  %8 = load ptr, ptr %7, align 8
  %.not10 = icmp eq ptr %8, null
  br i1 %.not10, label %10, label %9

9:                                                ; preds = %6
  tail call void @sequence_analysis_info_free(ptr noundef nonnull %8)
  br label %10

10:                                               ; preds = %9, %6
  tail call void @llvm.memset.p0.i64(ptr noundef align 1 dereferenceable(240) %2, i8 noundef 0, i64 noundef 240, i1 noundef false) #17
  tail call void @g_free(ptr noundef %0)
  ret void
}